target datalayout = "e-m:e-p270:32:32-p271:32:32-p272:64:64-i64:64-i128:128-f80:128-n8:16:32:64-S128"
target triple = "x86_64-pc-linux-gnu"

%struct.SurfaceDataRasInfo = type { %struct.SurfaceDataBounds, ptr, i32, i32, i32, i32, ptr, ptr, ptr, ptr, ptr, ptr, i32, %union.anon.0 }
%struct.SurfaceDataBounds = type { i32, i32, i32, i32 }
%union.anon.0 = type { ptr, [56 x i8] }

; Function Attrs: nounwind uwtable
define hidden void @UshortIndexedToIntArgbScaleConvert(ptr noundef %0, ptr noundef %1, i32 noundef %2, i32 noundef %3, i32 noundef %4, i32 noundef %5, i32 noundef %6, i32 noundef %7, i32 noundef %8, ptr noundef %9, ptr noundef %10, ptr noundef %11, ptr noundef %12) #0 {
  %14 = alloca ptr, align 8
  %15 = alloca ptr, align 8
  %16 = alloca i32, align 4
  %17 = alloca i32, align 4
  %18 = alloca i32, align 4
  %19 = alloca i32, align 4
  %20 = alloca i32, align 4
  %21 = alloca i32, align 4
  %22 = alloca i32, align 4
  %23 = alloca ptr, align 8
  %24 = alloca ptr, align 8
  %25 = alloca ptr, align 8
  %26 = alloca ptr, align 8
  %27 = alloca ptr, align 8
  %28 = alloca ptr, align 8
  %29 = alloca ptr, align 8
  %30 = alloca i32, align 4
  %31 = alloca i32, align 4
  %32 = alloca i32, align 4
  %33 = alloca i32, align 4
  %34 = alloca i32, align 4
  %35 = alloca i32, align 4
  store ptr %0, ptr %14, align 8
  store ptr %1, ptr %15, align 8
  store i32 %2, ptr %16, align 4
  store i32 %3, ptr %17, align 4
  store i32 %4, ptr %18, align 4
  store i32 %5, ptr %19, align 4
  store i32 %6, ptr %20, align 4
  store i32 %7, ptr %21, align 4
  store i32 %8, ptr %22, align 4
  store ptr %9, ptr %23, align 8
  store ptr %10, ptr %24, align 8
  store ptr %11, ptr %25, align 8
  store ptr %12, ptr %26, align 8
  %36 = load ptr, ptr %23, align 8
  %37 = getelementptr inbounds %struct.SurfaceDataRasInfo, ptr %36, i32 0, i32 6
  %38 = load ptr, ptr %37, align 8
  store ptr %38, ptr %27, align 8
  br label %39

39:                                               ; preds = %13
  %40 = load ptr, ptr %15, align 8
  store ptr %40, ptr %29, align 8
  %41 = load ptr, ptr %23, align 8
  %42 = getelementptr inbounds %struct.SurfaceDataRasInfo, ptr %41, i32 0, i32 4
  %43 = load i32, ptr %42, align 8
  store i32 %43, ptr %30, align 4
  %44 = load ptr, ptr %24, align 8
  %45 = getelementptr inbounds %struct.SurfaceDataRasInfo, ptr %44, i32 0, i32 4
  %46 = load i32, ptr %45, align 8
  store i32 %46, ptr %31, align 4
  %47 = load i32, ptr %16, align 4
  %48 = mul i32 %47, 4
  %49 = load i32, ptr %31, align 4
  %50 = sub i32 %49, %48
  store i32 %50, ptr %31, align 4
  br label %51

51:                                               ; preds = %106, %39
  %52 = load i32, ptr %16, align 4
  store i32 %52, ptr %32, align 4
  %53 = load i32, ptr %18, align 4
  store i32 %53, ptr %33, align 4
  %54 = load ptr, ptr %14, align 8
  %55 = ptrtoint ptr %54 to i64
  %56 = load i32, ptr %19, align 4
  %57 = load i32, ptr %22, align 4
  %58 = ashr i32 %56, %57
  %59 = sext i32 %58 to i64
  %60 = load i32, ptr %30, align 4
  %61 = sext i32 %60 to i64
  %62 = mul nsw i64 %59, %61
  %63 = add nsw i64 %55, %62
  %64 = inttoptr i64 %63 to ptr
  store ptr %64, ptr %28, align 8
  br label %65

65:                                               ; preds = %92, %51
  %66 = load i32, ptr %33, align 4
  %67 = load i32, ptr %22, align 4
  %68 = ashr i32 %66, %67
  store i32 %68, ptr %34, align 4
  br label %69

69:                                               ; preds = %65
  %70 = load ptr, ptr %27, align 8
  %71 = load ptr, ptr %28, align 8
  %72 = load i32, ptr %34, align 4
  %73 = sext i32 %72 to i64
  %74 = getelementptr inbounds i16, ptr %71, i64 %73
  %75 = load i16, ptr %74, align 2
  %76 = zext i16 %75 to i32
  %77 = and i32 %76, 4095
  %78 = sext i32 %77 to i64
  %79 = getelementptr inbounds i32, ptr %70, i64 %78
  %80 = load i32, ptr %79, align 4
  store i32 %80, ptr %35, align 4
  %81 = load i32, ptr %35, align 4
  %82 = load ptr, ptr %29, align 8
  %83 = getelementptr inbounds i32, ptr %82, i64 0
  store i32 %81, ptr %83, align 4
  br label %84

84:                                               ; preds = %69
  %85 = load ptr, ptr %29, align 8
  %86 = ptrtoint ptr %85 to i64
  %87 = add nsw i64 %86, 4
  %88 = inttoptr i64 %87 to ptr
  store ptr %88, ptr %29, align 8
  %89 = load i32, ptr %20, align 4
  %90 = load i32, ptr %33, align 4
  %91 = add nsw i32 %90, %89
  store i32 %91, ptr %33, align 4
  br label %92

92:                                               ; preds = %84
  %93 = load i32, ptr %32, align 4
  %94 = add i32 %93, -1
  store i32 %94, ptr %32, align 4
  %95 = icmp ugt i32 %94, 0
  br i1 %95, label %65, label %96, !llvm.loop !32

96:                                               ; preds = %92
  %97 = load ptr, ptr %29, align 8
  %98 = ptrtoint ptr %97 to i64
  %99 = load i32, ptr %31, align 4
  %100 = sext i32 %99 to i64
  %101 = add nsw i64 %98, %100
  %102 = inttoptr i64 %101 to ptr
  store ptr %102, ptr %29, align 8
  %103 = load i32, ptr %21, align 4
  %104 = load i32, ptr %19, align 4
  %105 = add nsw i32 %104, %103
  store i32 %105, ptr %19, align 4
  br label %106

106:                                              ; preds = %96
  %107 = load i32, ptr %17, align 4
  %108 = add i32 %107, -1
  store i32 %108, ptr %17, align 4
  %109 = icmp ugt i32 %108, 0
  br i1 %109, label %51, label %110, !llvm.loop !33

110:                                              ; preds = %106
  br label %111

111:                                              ; preds = %110
  ret void
}